; Function Attrs: mustprogress uwtable
define void @_ZN5arrow2io21FixedSizeBufferWriterC2ERKSt10shared_ptrINS_6BufferEE(ptr nocapture noundef nonnull writeonly align 8 dereferenceable(24) %this, ptr nocapture noundef readonly %vtt, ptr noundef nonnull align 8 dereferenceable(16) %buffer) unnamed_addr #4 align 2 personality ptr @__gxx_personality_v0 {
entry:
  %0 = getelementptr inbounds i8, ptr %vtt, i64 8
  %1 = getelementptr inbounds i8, ptr %vtt, i64 16
  store ptr getelementptr inbounds ({ [7 x ptr] }, ptr @_ZTVN5arrow2io8WritableE, i64 0, i32 0, i64 2), ptr %this, align 8
  %2 = load ptr, ptr %1, align 8
  store ptr %2, ptr %this, align 8
  %3 = getelementptr inbounds i8, ptr %vtt, i64 24
  %4 = load ptr, ptr %3, align 8
  %vbase.offset.ptr.i.i = getelementptr i8, ptr %2, i64 -24
  %vbase.offset.i.i = load i64, ptr %vbase.offset.ptr.i.i, align 8
  %add.ptr.i.i = getelementptr inbounds i8, ptr %this, i64 %vbase.offset.i.i
  store ptr %4, ptr %add.ptr.i.i, align 8
  %5 = getelementptr inbounds i8, ptr %this, i64 8
  store ptr getelementptr inbounds ({ [5 x ptr] }, ptr @_ZTVN5arrow2io8SeekableE, i64 0, i32 0, i64 2), ptr %5, align 8
  %6 = load ptr, ptr %0, align 8
  store ptr %6, ptr %this, align 8
  %7 = getelementptr inbounds i8, ptr %vtt, i64 32
  %8 = load ptr, ptr %7, align 8
  %vbase.offset.ptr.i = getelementptr i8, ptr %6, i64 -24
  %vbase.offset.i = load i64, ptr %vbase.offset.ptr.i, align 8
  %add.ptr.i = getelementptr inbounds i8, ptr %this, i64 %vbase.offset.i
  store ptr %8, ptr %add.ptr.i, align 8
  store ptr getelementptr inbounds ({ [9 x ptr], [5 x ptr], [15 x ptr] }, ptr @_ZTVN5arrow2io12WritableFileE, i64 0, i32 1, i64 2), ptr %5, align 8
  %9 = load ptr, ptr %vtt, align 8
  store ptr %9, ptr %this, align 8
  %10 = getelementptr inbounds i8, ptr %vtt, i64 40
  %11 = load ptr, ptr %10, align 8
  %vbase.offset.ptr = getelementptr i8, ptr %9, i64 -24
  %vbase.offset = load i64, ptr %vbase.offset.ptr, align 8
  %add.ptr = getelementptr inbounds i8, ptr %this, i64 %vbase.offset
  store ptr %11, ptr %add.ptr, align 8
  store ptr getelementptr inbounds ({ [13 x ptr], [5 x ptr], [15 x ptr] }, ptr @_ZTVN5arrow2io21FixedSizeBufferWriterE, i64 0, i32 1, i64 2), ptr %5, align 8
  %call = tail call noalias noundef nonnull dereferenceable(104) ptr @_Znwm(i64 noundef 104) #28
  invoke void @_ZN5arrow2io21FixedSizeBufferWriter25FixedSizeBufferWriterImplC2ERKSt10shared_ptrINS_6BufferEE(ptr noundef nonnull align 8 dereferenceable(104) %call, ptr noundef nonnull align 8 dereferenceable(16) %buffer)
          to label %invoke.cont5 unwind label %lpad4

invoke.cont5:                                     ; preds = %entry
  %impl_ = getelementptr inbounds i8, ptr %this, i64 16
  store ptr %call, ptr %impl_, align 8
  ret void

lpad4:                                            ; preds = %entry
  %12 = landingpad { ptr, i32 }
          cleanup
  tail call void @_ZdlPv(ptr noundef nonnull %call) #30
  resume { ptr, i32 } %12
}